; ModuleID = 'bench/abseil-cpp/original/cycleclock.ll'
source_filename = "bench/abseil-cpp/original/cycleclock.ll"
target datalayout = "e-m:e-p270:32:32-p271:32:32-p272:64:64-i64:64-i128:128-f80:128-n8:16:32:64-S128"
target triple = "x86_64-pc-linux-gnu"

%"struct.std::atomic" = type { %"struct.std::__atomic_base" }
%"struct.std::__atomic_base" = type { ptr }

@_ZN4absl13base_internal10CycleClock19cycle_clock_source_E = dso_local local_unnamed_addr global %"struct.std::atomic" zeroinitializer, align 8

; Function Attrs: mustprogress nofree norecurse nounwind willreturn memory(readwrite, argmem: none, inaccessiblemem: none) uwtable
define dso_local void @_ZN4absl13base_internal16CycleClockSource8RegisterEPFlvE(ptr noundef %0) local_unnamed_addr #0 align 2 personality ptr @__gxx_personality_v0 {
  %2 = ptrtoint ptr %0 to i64
  store atomic i64 %2, ptr @_ZN4absl13base_internal10CycleClock19cycle_clock_source_E release, align 8
  ret void
}

declare i32 @__gxx_personality_v0(...)


!llvm.module.flags = !{!0, !1, !2, !3}

!0 = !{i32 1, !"wchar_size", i32 4}
!1 = !{i32 8, !"PIC Level", i32 2}
!2 = !{i32 7, !"PIE Level", i32 2}
!3 = !{i32 7, !"uwtable", i32 2}
